; Function Attrs: mustprogress uwtable
define dso_local void @_ZN6V3Task7taskAllEP10AstNetlist(ptr noundef %0) #3 align 2 personality ptr @__gxx_personality_v0 {
  %2 = alloca %"class.std::__cxx11::basic_string", align 8
  %3 = alloca %class.TaskStateVisitor, align 8
  %4 = alloca %class.TaskVisitor, align 8
  %5 = alloca %"class.std::__cxx11::basic_string", align 8
  %6 = alloca %"class.std::allocator.0", align 1
  %7 = tail call noundef i32 @_ZL5debugv()
  %8 = icmp sgt i32 %7, 1
  br i1 %8, label %9, label %21

9:                                                ; preds = %1
  %10 = tail call noundef nonnull align 8 dereferenceable(8) ptr @_ZStlsISt11char_traitsIcEERSt13basic_ostreamIcT_ES5_PKc(ptr noundef nonnull align 8 dereferenceable(8) @_ZSt4cout, ptr noundef nonnull @.str.1)
  call void @_ZN7V3Error7lineStrB5cxx11EPKci(ptr dead_on_unwind nonnull writable sret(%"class.std::__cxx11::basic_string") align 8 %2, ptr noundef nonnull @.str.2, i32 noundef 1975)
  %11 = invoke noundef nonnull align 8 dereferenceable(8) ptr @_ZStlsIcSt11char_traitsIcESaIcEERSt13basic_ostreamIT_T0_ES7_RKNSt7__cxx1112basic_stringIS4_S5_T1_EE(ptr noundef nonnull align 8 dereferenceable(8) %10, ptr noundef nonnull align 8 dereferenceable(32) %2)
          to label %12 unwind label %19

12:                                               ; preds = %9
  %13 = invoke noundef nonnull align 8 dereferenceable(8) ptr @_ZStlsISt11char_traitsIcEERSt13basic_ostreamIcT_ES5_PKc(ptr noundef nonnull align 8 dereferenceable(8) %11, ptr noundef nonnull @__FUNCTION__._ZN6V3Task7taskAllEP10AstNetlist)
          to label %14 unwind label %19

14:                                               ; preds = %12
  %15 = invoke noundef nonnull align 8 dereferenceable(8) ptr @_ZStlsISt11char_traitsIcEERSt13basic_ostreamIcT_ES5_PKc(ptr noundef nonnull align 8 dereferenceable(8) %13, ptr noundef nonnull @.str.56)
          to label %16 unwind label %19

16:                                               ; preds = %14
  %17 = invoke noundef nonnull align 8 dereferenceable(8) ptr @_ZNSolsEPFRSoS_E(ptr noundef nonnull align 8 dereferenceable(8) %15, ptr noundef nonnull @_ZSt4endlIcSt11char_traitsIcEERSt13basic_ostreamIT_T0_ES6_)
          to label %18 unwind label %19

18:                                               ; preds = %16
  call void @_ZNSt7__cxx1112basic_stringIcSt11char_traitsIcESaIcEED1Ev(ptr noundef nonnull align 8 dereferenceable(32) %2) #23
  br label %21

19:                                               ; preds = %16, %14, %12, %9
  %20 = landingpad { ptr, i32 }
          cleanup
  call void @_ZNSt7__cxx1112basic_stringIcSt11char_traitsIcESaIcEED1Ev(ptr noundef nonnull align 8 dereferenceable(32) %2) #23
  br label %41

21:                                               ; preds = %1, %18
  call void @_ZN16TaskStateVisitorC2EP10AstNetlist(ptr noundef nonnull align 8 dereferenceable(224) %3, ptr noundef %0)
  invoke void @_ZN11TaskVisitorC2EP10AstNetlistP16TaskStateVisitor(ptr noundef nonnull align 8 dereferenceable(136) %4, ptr noundef %0, ptr noundef nonnull %3)
          to label %22 unwind label %35

22:                                               ; preds = %21
  call void @_ZN11TaskVisitorD2Ev(ptr noundef nonnull align 8 dereferenceable(136) %4) #23
  call void @_ZN16TaskStateVisitorD2Ev(ptr noundef nonnull align 8 dereferenceable(224) %3) #23
  call void @_ZNSaIcEC1Ev(ptr noundef nonnull align 1 dereferenceable(1) %6) #23
  %23 = invoke noundef ptr @_ZNSt7__cxx1112basic_stringIcSt11char_traitsIcESaIcEE13_M_local_dataEv(ptr noundef nonnull align 8 dereferenceable(32) %5)
          to label %.noexc unwind label %37

.noexc:                                           ; preds = %22
  invoke void @_ZNSt7__cxx1112basic_stringIcSt11char_traitsIcESaIcEE12_Alloc_hiderC1EPcRKS3_(ptr noundef nonnull align 8 dereferenceable(8) %5, ptr noundef %23, ptr noundef nonnull align 1 dereferenceable(1) %6)
          to label %.noexc7 unwind label %37

.noexc7:                                          ; preds = %.noexc
  invoke void @_ZNSt7__cxx1112basic_stringIcSt11char_traitsIcESaIcEE12_M_constructIPKcEEvT_S8_St20forward_iterator_tag(ptr noundef nonnull align 8 dereferenceable(32) %5, ptr noundef nonnull @.str.57, ptr noundef nonnull getelementptr inbounds ([5 x i8], ptr @.str.57, i64 0, i64 4))
          to label %_ZNSt7__cxx1112basic_stringIcSt11char_traitsIcESaIcEEC2IS3_EEPKcRKS3_.exit unwind label %24

24:                                               ; preds = %.noexc7
  %25 = landingpad { ptr, i32 }
          cleanup
  call void @_ZNSaIcED2Ev(ptr noundef nonnull align 1 dereferenceable(1) %5) #23
  br label %.body

_ZNSt7__cxx1112basic_stringIcSt11char_traitsIcESaIcEEC2IS3_EEPKcRKS3_.exit: ; preds = %.noexc7
  %26 = invoke fastcc noundef i32 @_ZL17dumpTreeJsonLevelv()
          to label %.noexc8 unwind label %39

.noexc8:                                          ; preds = %_ZNSt7__cxx1112basic_stringIcSt11char_traitsIcESaIcEEC2IS3_EEPKcRKS3_.exit
  %27 = invoke fastcc noundef i32 @_ZL13dumpTreeLevelv()
          to label %.noexc9 unwind label %39

.noexc9:                                          ; preds = %.noexc8
  %.not.i = icmp slt i32 %26, %27
  br i1 %.not.i, label %30, label %28

28:                                               ; preds = %.noexc9
  %29 = invoke fastcc noundef i32 @_ZL17dumpTreeJsonLevelv()
          to label %_ZL19dumpTreeEitherLevelv.exit unwind label %39

30:                                               ; preds = %.noexc9
  %31 = invoke fastcc noundef i32 @_ZL13dumpTreeLevelv()
          to label %_ZL19dumpTreeEitherLevelv.exit unwind label %39

_ZL19dumpTreeEitherLevelv.exit:                   ; preds = %28, %30
  %32 = phi i32 [ %29, %28 ], [ %31, %30 ]
  %33 = icmp sgt i32 %32, 2
  invoke void @_ZN8V3Global19dumpCheckGlobalTreeERKNSt7__cxx1112basic_stringIcSt11char_traitsIcESaIcEEEib(ptr noundef nonnull align 8 dereferenceable(32) %5, i32 noundef 0, i1 noundef zeroext %33)
          to label %34 unwind label %39

34:                                               ; preds = %_ZL19dumpTreeEitherLevelv.exit
  call void @_ZNSt7__cxx1112basic_stringIcSt11char_traitsIcESaIcEED1Ev(ptr noundef nonnull align 8 dereferenceable(32) %5) #23
  call void @_ZNSaIcED1Ev(ptr noundef nonnull align 1 dereferenceable(1) %6) #23
  ret void

35:                                               ; preds = %21
  %36 = landingpad { ptr, i32 }
          cleanup
  call void @_ZN16TaskStateVisitorD2Ev(ptr noundef nonnull align 8 dereferenceable(224) %3) #23
  br label %41

37:                                               ; preds = %.noexc, %22
  %38 = landingpad { ptr, i32 }
          cleanup
  br label %.body

39:                                               ; preds = %30, %28, %.noexc8, %_ZNSt7__cxx1112basic_stringIcSt11char_traitsIcESaIcEEC2IS3_EEPKcRKS3_.exit, %_ZL19dumpTreeEitherLevelv.exit
  %40 = landingpad { ptr, i32 }
          cleanup
  call void @_ZNSt7__cxx1112basic_stringIcSt11char_traitsIcESaIcEED1Ev(ptr noundef nonnull align 8 dereferenceable(32) %5) #23
  br label %.body

.body:                                            ; preds = %37, %24, %39
  %.pn = phi { ptr, i32 } [ %40, %39 ], [ %38, %37 ], [ %25, %24 ]
  call void @_ZNSaIcED1Ev(ptr noundef nonnull align 1 dereferenceable(1) %6) #23
  br label %41

41:                                               ; preds = %.body, %35, %19
  %.pn.pn = phi { ptr, i32 } [ %.pn, %.body ], [ %36, %35 ], [ %20, %19 ]
  resume { ptr, i32 } %.pn.pn
}